target datalayout = "e-m:e-p270:32:32-p271:32:32-p272:64:64-i64:64-i128:128-f80:128-n8:16:32:64-S128"
target triple = "x86_64-pc-linux-gnu"

%struct._zend_refcounted_h = type { i32, %union.anon.3 }
%union.anon.3 = type { i32 }
%struct._zval_struct = type { %union._zend_value, %union.anon, %union.anon.2 }
%union._zend_value = type { i64 }
%union.anon = type { i32 }
%union.anon.2 = type { i32 }
%struct._zend_object = type { %struct._zend_refcounted_h, i32, ptr, ptr, ptr, [1 x %struct._zval_struct] }
%struct._zend_string = type { %struct._zend_refcounted_h, i64, i64, [1 x i8] }
%struct._zend_refcounted = type { %struct._zend_refcounted_h }

; Function Attrs: nounwind uwtable
define hidden ptr @zend_enum_new(ptr noundef %0, ptr noundef %1, ptr noundef %2, ptr noundef %3) #0 {
  %5 = alloca ptr, align 8
  %6 = alloca ptr, align 8
  %7 = alloca i32, align 4
  %8 = alloca ptr, align 8
  %9 = alloca ptr, align 8
  %10 = alloca ptr, align 8
  %11 = alloca ptr, align 8
  %12 = alloca ptr, align 8
  %13 = alloca ptr, align 8
  %14 = alloca ptr, align 8
  %15 = alloca ptr, align 8
  %16 = alloca ptr, align 8
  %17 = alloca ptr, align 8
  %18 = alloca ptr, align 8
  %19 = alloca ptr, align 8
  %20 = alloca ptr, align 8
  %21 = alloca i32, align 4
  store ptr %0, ptr %8, align 8
  store ptr %1, ptr %9, align 8
  store ptr %2, ptr %10, align 8
  store ptr %3, ptr %11, align 8
  %22 = load ptr, ptr %9, align 8
  %23 = call ptr @zend_objects_new(ptr noundef %22)
  store ptr %23, ptr %12, align 8
  br label %24

24:                                               ; preds = %4
  %25 = load ptr, ptr %8, align 8
  store ptr %25, ptr %13, align 8
  %26 = load ptr, ptr %12, align 8
  %27 = load ptr, ptr %13, align 8
  %28 = getelementptr inbounds %struct._zval_struct, ptr %27, i32 0, i32 0
  store ptr %26, ptr %28, align 8
  %29 = load ptr, ptr %13, align 8
  %30 = getelementptr inbounds %struct._zval_struct, ptr %29, i32 0, i32 1
  store i32 776, ptr %30, align 8
  br label %31

31:                                               ; preds = %24
  %32 = load ptr, ptr %12, align 8
  %33 = getelementptr inbounds %struct._zend_object, ptr %32, i32 0, i32 5
  %34 = getelementptr inbounds [1 x %struct._zval_struct], ptr %33, i64 0, i64 0
  store ptr %34, ptr %14, align 8
  br label %35

35:                                               ; preds = %31
  %36 = load ptr, ptr %14, align 8
  store ptr %36, ptr %15, align 8
  %37 = load ptr, ptr %10, align 8
  store ptr %37, ptr %16, align 8
  %38 = load ptr, ptr %16, align 8
  %39 = load ptr, ptr %15, align 8
  %40 = getelementptr inbounds %struct._zval_struct, ptr %39, i32 0, i32 0
  store ptr %38, ptr %40, align 8
  %41 = load ptr, ptr %16, align 8
  %42 = getelementptr inbounds %struct._zend_string, ptr %41, i32 0, i32 0
  %43 = getelementptr inbounds %struct._zend_refcounted_h, ptr %42, i32 0, i32 1
  %44 = load i32, ptr %43, align 4
  store i32 %44, ptr %7, align 4
  %45 = load i32, ptr %7, align 4
  %46 = and i32 %45, 1008
  %47 = and i32 %46, 64
  %48 = icmp ne i32 %47, 0
  br i1 %48, label %49, label %52

49:                                               ; preds = %35
  %50 = load ptr, ptr %15, align 8
  %51 = getelementptr inbounds %struct._zval_struct, ptr %50, i32 0, i32 1
  store i32 6, ptr %51, align 8
  br label %60

52:                                               ; preds = %35
  %53 = load ptr, ptr %16, align 8
  %54 = getelementptr inbounds %struct._zend_string, ptr %53, i32 0, i32 0
  store ptr %54, ptr %5, align 8
  %55 = load ptr, ptr %5, align 8
  %56 = load i32, ptr %55, align 4
  %57 = add i32 %56, 1
  store i32 %57, ptr %55, align 4
  %58 = load ptr, ptr %15, align 8
  %59 = getelementptr inbounds %struct._zval_struct, ptr %58, i32 0, i32 1
  store i32 262, ptr %59, align 8
  br label %60

60:                                               ; preds = %52, %49
  br label %61

61:                                               ; preds = %60
  %62 = load ptr, ptr %14, align 8
  %63 = getelementptr inbounds %struct._zval_struct, ptr %62, i32 0, i32 2
  store i32 0, ptr %63, align 4
  %64 = load ptr, ptr %11, align 8
  %65 = icmp ne ptr %64, null
  br i1 %65, label %66, label %100

66:                                               ; preds = %61
  %67 = load ptr, ptr %12, align 8
  %68 = getelementptr inbounds %struct._zend_object, ptr %67, i32 0, i32 5
  %69 = getelementptr inbounds [1 x %struct._zval_struct], ptr %68, i64 0, i64 1
  store ptr %69, ptr %17, align 8
  br label %70

70:                                               ; preds = %66
  %71 = load ptr, ptr %17, align 8
  store ptr %71, ptr %18, align 8
  %72 = load ptr, ptr %11, align 8
  store ptr %72, ptr %19, align 8
  %73 = load ptr, ptr %19, align 8
  %74 = getelementptr inbounds %struct._zval_struct, ptr %73, i32 0, i32 0
  %75 = load ptr, ptr %74, align 8
  store ptr %75, ptr %20, align 8
  %76 = load ptr, ptr %19, align 8
  %77 = getelementptr inbounds %struct._zval_struct, ptr %76, i32 0, i32 1
  %78 = load i32, ptr %77, align 8
  store i32 %78, ptr %21, align 4
  br label %79

79:                                               ; preds = %70
  %80 = load ptr, ptr %20, align 8
  %81 = load ptr, ptr %18, align 8
  %82 = getelementptr inbounds %struct._zval_struct, ptr %81, i32 0, i32 0
  store ptr %80, ptr %82, align 8
  %83 = load i32, ptr %21, align 4
  %84 = load ptr, ptr %18, align 8
  %85 = getelementptr inbounds %struct._zval_struct, ptr %84, i32 0, i32 1
  store i32 %83, ptr %85, align 8
  br label %86

86:                                               ; preds = %79
  %87 = load i32, ptr %21, align 4
  %88 = and i32 %87, 65280
  %89 = icmp ne i32 %88, 0
  br i1 %89, label %90, label %96

90:                                               ; preds = %86
  %91 = load ptr, ptr %20, align 8
  %92 = getelementptr inbounds %struct._zend_refcounted, ptr %91, i32 0, i32 0
  store ptr %92, ptr %6, align 8
  %93 = load ptr, ptr %6, align 8
  %94 = load i32, ptr %93, align 4
  %95 = add i32 %94, 1
  store i32 %95, ptr %93, align 4
  br label %96

96:                                               ; preds = %90, %86
  br label %97

97:                                               ; preds = %96
  %98 = load ptr, ptr %17, align 8
  %99 = getelementptr inbounds %struct._zval_struct, ptr %98, i32 0, i32 2
  store i32 0, ptr %99, align 4
  br label %100

100:                                              ; preds = %97, %61
  %101 = load ptr, ptr %12, align 8
  ret ptr %101
}