; Function Attrs: nounwind uwtable
define hidden ptr @zend_enum_new(ptr nocapture noundef writeonly %0, ptr noundef %1, ptr noundef %2, ptr noundef readonly %3) local_unnamed_addr #0 {
  %5 = tail call ptr @zend_objects_new(ptr noundef %1) #12
  store ptr %5, ptr %0, align 8
  %6 = getelementptr inbounds i8, ptr %0, i64 8
  store i32 776, ptr %6, align 8
  %7 = getelementptr inbounds i8, ptr %5, i64 40
  store ptr %2, ptr %7, align 8
  %8 = getelementptr inbounds i8, ptr %2, i64 4
  %9 = load i32, ptr %8, align 4
  %10 = and i32 %9, 64
  %.not = icmp eq i32 %10, 0
  br i1 %.not, label %11, label %14

11:                                               ; preds = %4
  %12 = load i32, ptr %2, align 4
  %13 = add i32 %12, 1
  store i32 %13, ptr %2, align 4
  br label %14

14:                                               ; preds = %4, %11
  %.sink = phi i32 [ 262, %11 ], [ 6, %4 ]
  %15 = getelementptr inbounds i8, ptr %5, i64 48
  store i32 %.sink, ptr %15, align 8
  %16 = getelementptr inbounds i8, ptr %5, i64 52
  store i32 0, ptr %16, align 4
  %.not31 = icmp eq ptr %3, null
  br i1 %.not31, label %29, label %17

17:                                               ; preds = %14
  %18 = getelementptr inbounds i8, ptr %5, i64 56
  %19 = load ptr, ptr %3, align 8
  %20 = getelementptr inbounds i8, ptr %3, i64 8
  %21 = load i32, ptr %20, align 8
  store ptr %19, ptr %18, align 8
  %22 = getelementptr inbounds i8, ptr %5, i64 64
  store i32 %21, ptr %22, align 8
  %23 = and i32 %21, 65280
  %.not32 = icmp eq i32 %23, 0
  br i1 %.not32, label %27, label %24

24:                                               ; preds = %17
  %25 = load i32, ptr %19, align 4
  %26 = add i32 %25, 1
  store i32 %26, ptr %19, align 4
  br label %27

27:                                               ; preds = %17, %24
  %28 = getelementptr inbounds i8, ptr %5, i64 68
  store i32 0, ptr %28, align 4
  br label %29

29:                                               ; preds = %27, %14
  ret ptr %5
}